target datalayout = "e-m:e-p270:32:32-p271:32:32-p272:64:64-i64:64-i128:128-f80:128-n8:16:32:64-S128"
target triple = "x86_64-pc-linux-gnu"

%struct.keyPattern = type { i32, ptr }

; Function Attrs: nounwind uwtable
define dso_local ptr @ACLKeyPatternCreate(ptr noundef %0, i32 noundef %1) #0 {
  %3 = alloca ptr, align 8
  %4 = alloca i32, align 4
  %5 = alloca ptr, align 8
  store ptr %0, ptr %3, align 8, !tbaa !5
  store i32 %1, ptr %4, align 4, !tbaa !17
  call void @llvm.lifetime.start.p0(i64 8, ptr %5) #14
  %6 = call noalias ptr @zmalloc(i64 noundef 16) #13
  store ptr %6, ptr %5, align 8, !tbaa !32
  %7 = load ptr, ptr %3, align 8, !tbaa !5
  %8 = load ptr, ptr %5, align 8, !tbaa !32
  %9 = getelementptr inbounds nuw %struct.keyPattern, ptr %8, i32 0, i32 1
  store ptr %7, ptr %9, align 8, !tbaa !35
  %10 = load i32, ptr %4, align 4, !tbaa !17
  %11 = load ptr, ptr %5, align 8, !tbaa !32
  %12 = getelementptr inbounds nuw %struct.keyPattern, ptr %11, i32 0, i32 0
  store i32 %10, ptr %12, align 8, !tbaa !37
  %13 = load ptr, ptr %5, align 8, !tbaa !32
  call void @llvm.lifetime.end.p0(i64 8, ptr %5) #14
  ret ptr %13
}

; Function Attrs: nounwind uwtable
define dso_local ptr @ACLListDupKeyPattern(ptr noundef %0) #0 {
  %2 = alloca ptr, align 8
  %3 = alloca ptr, align 8
  store ptr %0, ptr %2, align 8, !tbaa !32
  call void @llvm.lifetime.start.p0(i64 8, ptr %3) #14
  %4 = load ptr, ptr %2, align 8, !tbaa !32
  store ptr %4, ptr %3, align 8, !tbaa !32
  %5 = load ptr, ptr %3, align 8, !tbaa !32
  %6 = getelementptr inbounds nuw %struct.keyPattern, ptr %5, i32 0, i32 1
  %7 = load ptr, ptr %6, align 8, !tbaa !35
  %8 = call ptr @sdsdup(ptr noundef %7)
  %9 = load ptr, ptr %3, align 8, !tbaa !32
  %10 = getelementptr inbounds nuw %struct.keyPattern, ptr %9, i32 0, i32 0
  %11 = load i32, ptr %10, align 8, !tbaa !37
  %12 = call ptr @ACLKeyPatternCreate(ptr noundef %8, i32 noundef %11)
  call void @llvm.lifetime.end.p0(i64 8, ptr %3) #14
  ret ptr %12
}