; Function Attrs: nounwind uwtable
define dso_local noalias noundef ptr @ACLListDupKeyPattern(ptr noundef readonly captures(none) %0) #0 {
  %2 = getelementptr inbounds nuw i8, ptr %0, i64 8
  %3 = load ptr, ptr %2, align 8, !tbaa !30
  %4 = tail call ptr @sdsdup(ptr noundef %3) #25
  %5 = load i32, ptr %0, align 8, !tbaa !33
  %6 = tail call noalias noundef dereferenceable_or_null(16) ptr @zmalloc(i64 noundef 16) #26
  %7 = getelementptr inbounds nuw i8, ptr %6, i64 8
  store ptr %4, ptr %7, align 8, !tbaa !30
  store i32 %5, ptr %6, align 8, !tbaa !33
  ret ptr %6
}